target datalayout = "e-m:e-p270:32:32-p271:32:32-p272:64:64-i64:64-i128:128-f80:128-n8:16:32:64-S128"
target triple = "x86_64-unknown-linux-gnu"

%class.aiQuaterniont = type { float, float, float, float }

; Function Attrs: mustprogress nounwind uwtable
define linkonce_odr hidden void @_ZN13aiQuaterniontIfEC2Effff(ptr noundef nonnull align 4 dereferenceable(16) %this, float noundef %pw, float noundef %px, float noundef %py, float noundef %pz) unnamed_addr #0 comdat align 2 {
entry:
  %this.addr = alloca ptr, align 8
  %pw.addr = alloca float, align 4
  %px.addr = alloca float, align 4
  %py.addr = alloca float, align 4
  %pz.addr = alloca float, align 4
  store ptr %this, ptr %this.addr, align 8
  store float %pw, ptr %pw.addr, align 4
  store float %px, ptr %px.addr, align 4
  store float %py, ptr %py.addr, align 4
  store float %pz, ptr %pz.addr, align 4
  %this1 = load ptr, ptr %this.addr, align 8
  %w = getelementptr inbounds %class.aiQuaterniont, ptr %this1, i32 0, i32 0
  %0 = load float, ptr %pw.addr, align 4
  store float %0, ptr %w, align 4
  %x = getelementptr inbounds %class.aiQuaterniont, ptr %this1, i32 0, i32 1
  %1 = load float, ptr %px.addr, align 4
  store float %1, ptr %x, align 4
  %y = getelementptr inbounds %class.aiQuaterniont, ptr %this1, i32 0, i32 2
  %2 = load float, ptr %py.addr, align 4
  store float %2, ptr %y, align 4
  %z = getelementptr inbounds %class.aiQuaterniont, ptr %this1, i32 0, i32 3
  %3 = load float, ptr %pz.addr, align 4
  store float %3, ptr %z, align 4
  ret void
}

; Function Attrs: mustprogress uwtable
define linkonce_odr hidden { <2 x float>, <2 x float> } @_ZNK13aiQuaterniontIfEmlERKS0_(ptr noundef nonnull align 4 dereferenceable(16) %this, ptr noundef nonnull align 4 dereferenceable(16) %t) #5 comdat align 2 {
entry:
  %retval = alloca %class.aiQuaterniont, align 4
  %this.addr = alloca ptr, align 8
  %t.addr = alloca ptr, align 8
  store ptr %this, ptr %this.addr, align 8
  store ptr %t, ptr %t.addr, align 8
  %this1 = load ptr, ptr %this.addr, align 8
  %w = getelementptr inbounds %class.aiQuaterniont, ptr %this1, i32 0, i32 0
  %0 = load float, ptr %w, align 4
  %1 = load ptr, ptr %t.addr, align 8
  %w2 = getelementptr inbounds %class.aiQuaterniont, ptr %1, i32 0, i32 0
  %2 = load float, ptr %w2, align 4
  %x = getelementptr inbounds %class.aiQuaterniont, ptr %this1, i32 0, i32 1
  %3 = load float, ptr %x, align 4
  %4 = load ptr, ptr %t.addr, align 8
  %x3 = getelementptr inbounds %class.aiQuaterniont, ptr %4, i32 0, i32 1
  %5 = load float, ptr %x3, align 4
  %mul4 = fmul float %3, %5
  %neg = fneg float %mul4
  %6 = call float @llvm.fmuladd.f32(float %0, float %2, float %neg)
  %y = getelementptr inbounds %class.aiQuaterniont, ptr %this1, i32 0, i32 2
  %7 = load float, ptr %y, align 4
  %8 = load ptr, ptr %t.addr, align 8
  %y5 = getelementptr inbounds %class.aiQuaterniont, ptr %8, i32 0, i32 2
  %9 = load float, ptr %y5, align 4
  %neg6 = fneg float %7
  %10 = call float @llvm.fmuladd.f32(float %neg6, float %9, float %6)
  %z = getelementptr inbounds %class.aiQuaterniont, ptr %this1, i32 0, i32 3
  %11 = load float, ptr %z, align 4
  %12 = load ptr, ptr %t.addr, align 8
  %z7 = getelementptr inbounds %class.aiQuaterniont, ptr %12, i32 0, i32 3
  %13 = load float, ptr %z7, align 4
  %neg8 = fneg float %11
  %14 = call float @llvm.fmuladd.f32(float %neg8, float %13, float %10)
  %w9 = getelementptr inbounds %class.aiQuaterniont, ptr %this1, i32 0, i32 0
  %15 = load float, ptr %w9, align 4
  %16 = load ptr, ptr %t.addr, align 8
  %x10 = getelementptr inbounds %class.aiQuaterniont, ptr %16, i32 0, i32 1
  %17 = load float, ptr %x10, align 4
  %x11 = getelementptr inbounds %class.aiQuaterniont, ptr %this1, i32 0, i32 1
  %18 = load float, ptr %x11, align 4
  %19 = load ptr, ptr %t.addr, align 8
  %w12 = getelementptr inbounds %class.aiQuaterniont, ptr %19, i32 0, i32 0
  %20 = load float, ptr %w12, align 4
  %mul13 = fmul float %18, %20
  %21 = call float @llvm.fmuladd.f32(float %15, float %17, float %mul13)
  %y14 = getelementptr inbounds %class.aiQuaterniont, ptr %this1, i32 0, i32 2
  %22 = load float, ptr %y14, align 4
  %23 = load ptr, ptr %t.addr, align 8
  %z15 = getelementptr inbounds %class.aiQuaterniont, ptr %23, i32 0, i32 3
  %24 = load float, ptr %z15, align 4
  %25 = call float @llvm.fmuladd.f32(float %22, float %24, float %21)
  %z16 = getelementptr inbounds %class.aiQuaterniont, ptr %this1, i32 0, i32 3
  %26 = load float, ptr %z16, align 4
  %27 = load ptr, ptr %t.addr, align 8
  %y17 = getelementptr inbounds %class.aiQuaterniont, ptr %27, i32 0, i32 2
  %28 = load float, ptr %y17, align 4
  %neg18 = fneg float %26
  %29 = call float @llvm.fmuladd.f32(float %neg18, float %28, float %25)
  %w19 = getelementptr inbounds %class.aiQuaterniont, ptr %this1, i32 0, i32 0
  %30 = load float, ptr %w19, align 4
  %31 = load ptr, ptr %t.addr, align 8
  %y20 = getelementptr inbounds %class.aiQuaterniont, ptr %31, i32 0, i32 2
  %32 = load float, ptr %y20, align 4
  %y21 = getelementptr inbounds %class.aiQuaterniont, ptr %this1, i32 0, i32 2
  %33 = load float, ptr %y21, align 4
  %34 = load ptr, ptr %t.addr, align 8
  %w22 = getelementptr inbounds %class.aiQuaterniont, ptr %34, i32 0, i32 0
  %35 = load float, ptr %w22, align 4
  %mul23 = fmul float %33, %35
  %36 = call float @llvm.fmuladd.f32(float %30, float %32, float %mul23)
  %z24 = getelementptr inbounds %class.aiQuaterniont, ptr %this1, i32 0, i32 3
  %37 = load float, ptr %z24, align 4
  %38 = load ptr, ptr %t.addr, align 8
  %x25 = getelementptr inbounds %class.aiQuaterniont, ptr %38, i32 0, i32 1
  %39 = load float, ptr %x25, align 4
  %40 = call float @llvm.fmuladd.f32(float %37, float %39, float %36)
  %x26 = getelementptr inbounds %class.aiQuaterniont, ptr %this1, i32 0, i32 1
  %41 = load float, ptr %x26, align 4
  %42 = load ptr, ptr %t.addr, align 8
  %z27 = getelementptr inbounds %class.aiQuaterniont, ptr %42, i32 0, i32 3
  %43 = load float, ptr %z27, align 4
  %neg28 = fneg float %41
  %44 = call float @llvm.fmuladd.f32(float %neg28, float %43, float %40)
  %w29 = getelementptr inbounds %class.aiQuaterniont, ptr %this1, i32 0, i32 0
  %45 = load float, ptr %w29, align 4
  %46 = load ptr, ptr %t.addr, align 8
  %z30 = getelementptr inbounds %class.aiQuaterniont, ptr %46, i32 0, i32 3
  %47 = load float, ptr %z30, align 4
  %z31 = getelementptr inbounds %class.aiQuaterniont, ptr %this1, i32 0, i32 3
  %48 = load float, ptr %z31, align 4
  %49 = load ptr, ptr %t.addr, align 8
  %w32 = getelementptr inbounds %class.aiQuaterniont, ptr %49, i32 0, i32 0
  %50 = load float, ptr %w32, align 4
  %mul33 = fmul float %48, %50
  %51 = call float @llvm.fmuladd.f32(float %45, float %47, float %mul33)
  %x34 = getelementptr inbounds %class.aiQuaterniont, ptr %this1, i32 0, i32 1
  %52 = load float, ptr %x34, align 4
  %53 = load ptr, ptr %t.addr, align 8
  %y35 = getelementptr inbounds %class.aiQuaterniont, ptr %53, i32 0, i32 2
  %54 = load float, ptr %y35, align 4
  %55 = call float @llvm.fmuladd.f32(float %52, float %54, float %51)
  %y36 = getelementptr inbounds %class.aiQuaterniont, ptr %this1, i32 0, i32 2
  %56 = load float, ptr %y36, align 4
  %57 = load ptr, ptr %t.addr, align 8
  %x37 = getelementptr inbounds %class.aiQuaterniont, ptr %57, i32 0, i32 1
  %58 = load float, ptr %x37, align 4
  %neg38 = fneg float %56
  %59 = call float @llvm.fmuladd.f32(float %neg38, float %58, float %55)
  call void @_ZN13aiQuaterniontIfEC2Effff(ptr noundef nonnull align 4 dereferenceable(16) %retval, float noundef %14, float noundef %29, float noundef %44, float noundef %59)
  %60 = load { <2 x float>, <2 x float> }, ptr %retval, align 4
  ret { <2 x float>, <2 x float> } %60
}

; Function Attrs: mustprogress uwtable
define void @aiQuaternionMultiply(ptr noundef %dst, ptr noundef %q) #12 {
entry:
  %dst.addr = alloca ptr, align 8
  %q.addr = alloca ptr, align 8
  %ref.tmp = alloca %class.aiQuaterniont, align 4
  store ptr %dst, ptr %dst.addr, align 8
  store ptr %q, ptr %q.addr, align 8
  %0 = load ptr, ptr %dst.addr, align 8
  %1 = load ptr, ptr %q.addr, align 8
  %call = call { <2 x float>, <2 x float> } @_ZNK13aiQuaterniontIfEmlERKS0_(ptr noundef nonnull align 4 dereferenceable(16) %0, ptr noundef nonnull align 4 dereferenceable(16) %1)
  %2 = getelementptr inbounds { <2 x float>, <2 x float> }, ptr %ref.tmp, i32 0, i32 0
  %3 = extractvalue { <2 x float>, <2 x float> } %call, 0
  store <2 x float> %3, ptr %2, align 4
  %4 = getelementptr inbounds { <2 x float>, <2 x float> }, ptr %ref.tmp, i32 0, i32 1
  %5 = extractvalue { <2 x float>, <2 x float> } %call, 1
  store <2 x float> %5, ptr %4, align 4
  %6 = load ptr, ptr %dst.addr, align 8
  call void @llvm.memcpy.p0.p0.i64(ptr align 4 %6, ptr align 4 %ref.tmp, i64 16, i1 false)
  ret void
}