; Function Attrs: mustprogress nofree norecurse nosync nounwind willreturn memory(argmem: readwrite) uwtable
define void @aiQuaternionMultiply(ptr nocapture noundef %dst, ptr nocapture noundef readonly %q) local_unnamed_addr #12 {
entry:
  %0 = load float, ptr %dst, align 4
  %1 = load float, ptr %q, align 4
  %x.i = getelementptr inbounds i8, ptr %dst, i64 4
  %x3.i = getelementptr inbounds i8, ptr %q, i64 4
  %y.i = getelementptr inbounds i8, ptr %dst, i64 8
  %z.i = getelementptr inbounds i8, ptr %dst, i64 12
  %2 = load float, ptr %z.i, align 4
  %z7.i = getelementptr inbounds i8, ptr %q, i64 12
  %3 = load float, ptr %z7.i, align 4
  %neg8.i = fneg float %2
  %4 = load <2 x float>, ptr %x.i, align 4
  %5 = load <2 x float>, ptr %x3.i, align 4
  %6 = fneg <2 x float> %4
  %7 = insertelement <2 x float> %6, float %1, i64 1
  %8 = shufflevector <2 x float> %5, <2 x float> %4, <2 x i32> <i32 0, i32 2>
  %9 = fmul <2 x float> %7, %8
  %10 = insertelement <2 x float> poison, float %0, i64 0
  %11 = shufflevector <2 x float> %10, <2 x float> poison, <2 x i32> zeroinitializer
  %12 = shufflevector <2 x float> %5, <2 x float> poison, <2 x i32> <i32 1, i32 0>
  %13 = insertelement <2 x float> %12, float %1, i64 0
  %14 = tail call <2 x float> @llvm.fmuladd.v2f32(<2 x float> %11, <2 x float> %13, <2 x float> %9)
  %15 = shufflevector <2 x float> %6, <2 x float> %4, <2 x i32> <i32 1, i32 3>
  %16 = insertelement <2 x float> %12, float %3, i64 1
  %17 = tail call <2 x float> @llvm.fmuladd.v2f32(<2 x float> %15, <2 x float> %16, <2 x float> %14)
  %18 = insertelement <2 x float> poison, float %neg8.i, i64 0
  %19 = shufflevector <2 x float> %18, <2 x float> poison, <2 x i32> zeroinitializer
  %20 = insertelement <2 x float> %5, float %3, i64 0
  %21 = tail call <2 x float> @llvm.fmuladd.v2f32(<2 x float> %19, <2 x float> %20, <2 x float> %17)
  %22 = insertelement <2 x float> poison, float %1, i64 0
  %23 = shufflevector <2 x float> %22, <2 x float> poison, <2 x i32> zeroinitializer
  %24 = shufflevector <2 x float> %4, <2 x float> poison, <2 x i32> <i32 1, i32 poison>
  %25 = insertelement <2 x float> %24, float %2, i64 1
  %26 = fmul <2 x float> %23, %25
  %27 = tail call <2 x float> @llvm.fmuladd.v2f32(<2 x float> %11, <2 x float> %16, <2 x float> %26)
  %28 = insertelement <2 x float> poison, float %2, i64 0
  %29 = shufflevector <2 x float> %28, <2 x float> %4, <2 x i32> <i32 0, i32 2>
  %30 = tail call <2 x float> @llvm.fmuladd.v2f32(<2 x float> %29, <2 x float> %5, <2 x float> %27)
  %31 = insertelement <2 x float> poison, float %3, i64 0
  %32 = shufflevector <2 x float> %31, <2 x float> %5, <2 x i32> <i32 0, i32 2>
  %33 = tail call <2 x float> @llvm.fmuladd.v2f32(<2 x float> %6, <2 x float> %32, <2 x float> %30)
  store <2 x float> %21, ptr %dst, align 4
  store <2 x float> %33, ptr %y.i, align 4
  ret void
}